target datalayout = "e-m:e-p270:32:32-p271:32:32-p272:64:64-i64:64-i128:128-f80:128-n8:16:32:64-S128"
target triple = "x86_64-pc-linux-gnu"

%"class.cvc5::internal::Rational" = type { %class.__gmp_expr }
%class.__gmp_expr = type { [1 x %struct.__mpq_struct] }
%struct.__mpq_struct = type { %struct.__mpz_struct, %struct.__mpz_struct }
%struct.__mpz_struct = type { i32, i32, ptr }
%"class.cvc5::internal::theory::arith::linear::Matrix" = type { %"class.std::vector.0", %"class.std::vector.5", %"class.cvc5::internal::DenseMap", i32, i32, %"class.cvc5::internal::theory::arith::linear::MatrixEntryVector", %"class.std::vector.10", %"class.cvc5::internal::Rational", %"class.cvc5::internal::theory::arith::linear::MatrixEntry" }
%"class.std::vector.0" = type { %"struct.std::_Vector_base.1" }
%"struct.std::_Vector_base.1" = type { %"struct.std::_Vector_base<cvc5::internal::theory::arith::linear::RowVector<cvc5::internal::Rational>, std::allocator<cvc5::internal::theory::arith::linear::RowVector<cvc5::internal::Rational>>>::_Vector_impl" }
%"struct.std::_Vector_base<cvc5::internal::theory::arith::linear::RowVector<cvc5::internal::Rational>, std::allocator<cvc5::internal::theory::arith::linear::RowVector<cvc5::internal::Rational>>>::_Vector_impl" = type { %"struct.std::_Vector_base<cvc5::internal::theory::arith::linear::RowVector<cvc5::internal::Rational>, std::allocator<cvc5::internal::theory::arith::linear::RowVector<cvc5::internal::Rational>>>::_Vector_impl_data" }
%"struct.std::_Vector_base<cvc5::internal::theory::arith::linear::RowVector<cvc5::internal::Rational>, std::allocator<cvc5::internal::theory::arith::linear::RowVector<cvc5::internal::Rational>>>::_Vector_impl_data" = type { ptr, ptr, ptr }
%"class.std::vector.5" = type { %"struct.std::_Vector_base.6" }
%"struct.std::_Vector_base.6" = type { %"struct.std::_Vector_base<cvc5::internal::theory::arith::linear::ColumnVector<cvc5::internal::Rational>, std::allocator<cvc5::internal::theory::arith::linear::ColumnVector<cvc5::internal::Rational>>>::_Vector_impl" }
%"struct.std::_Vector_base<cvc5::internal::theory::arith::linear::ColumnVector<cvc5::internal::Rational>, std::allocator<cvc5::internal::theory::arith::linear::ColumnVector<cvc5::internal::Rational>>>::_Vector_impl" = type { %"struct.std::_Vector_base<cvc5::internal::theory::arith::linear::ColumnVector<cvc5::internal::Rational>, std::allocator<cvc5::internal::theory::arith::linear::ColumnVector<cvc5::internal::Rational>>>::_Vector_impl_data" }
%"struct.std::_Vector_base<cvc5::internal::theory::arith::linear::ColumnVector<cvc5::internal::Rational>, std::allocator<cvc5::internal::theory::arith::linear::ColumnVector<cvc5::internal::Rational>>>::_Vector_impl_data" = type { ptr, ptr, ptr }
%"class.cvc5::internal::DenseMap" = type { %"class.std::vector.10", %"class.std::vector.10", %"class.std::vector.15" }
%"class.std::vector.15" = type { %"struct.std::_Vector_base.16" }
%"struct.std::_Vector_base.16" = type { %"struct.std::_Vector_base<std::pair<unsigned int, bool>, std::allocator<std::pair<unsigned int, bool>>>::_Vector_impl" }
%"struct.std::_Vector_base<std::pair<unsigned int, bool>, std::allocator<std::pair<unsigned int, bool>>>::_Vector_impl" = type { %"struct.std::_Vector_base<std::pair<unsigned int, bool>, std::allocator<std::pair<unsigned int, bool>>>::_Vector_impl_data" }
%"struct.std::_Vector_base<std::pair<unsigned int, bool>, std::allocator<std::pair<unsigned int, bool>>>::_Vector_impl_data" = type { ptr, ptr, ptr }
%"class.cvc5::internal::theory::arith::linear::MatrixEntryVector" = type <{ %"class.std::vector.20", %"class.std::queue", i32, [4 x i8] }>
%"class.std::vector.20" = type { %"struct.std::_Vector_base.21" }
%"struct.std::_Vector_base.21" = type { %"struct.std::_Vector_base<cvc5::internal::theory::arith::linear::MatrixEntry<cvc5::internal::Rational>, std::allocator<cvc5::internal::theory::arith::linear::MatrixEntry<cvc5::internal::Rational>>>::_Vector_impl" }
%"struct.std::_Vector_base<cvc5::internal::theory::arith::linear::MatrixEntry<cvc5::internal::Rational>, std::allocator<cvc5::internal::theory::arith::linear::MatrixEntry<cvc5::internal::Rational>>>::_Vector_impl" = type { %"struct.std::_Vector_base<cvc5::internal::theory::arith::linear::MatrixEntry<cvc5::internal::Rational>, std::allocator<cvc5::internal::theory::arith::linear::MatrixEntry<cvc5::internal::Rational>>>::_Vector_impl_data" }
%"struct.std::_Vector_base<cvc5::internal::theory::arith::linear::MatrixEntry<cvc5::internal::Rational>, std::allocator<cvc5::internal::theory::arith::linear::MatrixEntry<cvc5::internal::Rational>>>::_Vector_impl_data" = type { ptr, ptr, ptr }
%"class.std::queue" = type { %"class.std::deque" }
%"class.std::deque" = type { %"class.std::_Deque_base" }
%"class.std::_Deque_base" = type { %"struct.std::_Deque_base<unsigned int, std::allocator<unsigned int>>::_Deque_impl" }
%"struct.std::_Deque_base<unsigned int, std::allocator<unsigned int>>::_Deque_impl" = type { %"struct.std::_Deque_base<unsigned int, std::allocator<unsigned int>>::_Deque_impl_data" }
%"struct.std::_Deque_base<unsigned int, std::allocator<unsigned int>>::_Deque_impl_data" = type { ptr, i64, %"struct.std::_Deque_iterator", %"struct.std::_Deque_iterator" }
%"struct.std::_Deque_iterator" = type { ptr, ptr, ptr, ptr }
%"class.std::vector.10" = type { %"struct.std::_Vector_base.11" }
%"struct.std::_Vector_base.11" = type { %"struct.std::_Vector_base<unsigned int, std::allocator<unsigned int>>::_Vector_impl" }
%"struct.std::_Vector_base<unsigned int, std::allocator<unsigned int>>::_Vector_impl" = type { %"struct.std::_Vector_base<unsigned int, std::allocator<unsigned int>>::_Vector_impl_data" }
%"struct.std::_Vector_base<unsigned int, std::allocator<unsigned int>>::_Vector_impl_data" = type { ptr, ptr, ptr }
%"class.cvc5::internal::theory::arith::linear::MatrixEntry" = type { i32, i32, i32, i32, i32, i32, %"class.cvc5::internal::Rational" }
%"class.cvc5::internal::theory::arith::linear::Tableau" = type { %"class.cvc5::internal::theory::arith::linear::Matrix", %"class.cvc5::internal::DenseMap.25", %"class.cvc5::internal::DenseMap.25" }
%"class.cvc5::internal::DenseMap.25" = type { %"class.std::vector.10", %"class.std::vector.10", %"class.std::vector.10" }
%"class.cvc5::internal::theory::arith::linear::MatrixVector<cvc5::internal::Rational, true>::Iterator" = type { i32, ptr }
%"class.cvc5::internal::theory::arith::linear::MatrixVector.37" = type { i32, i32, ptr }
%"class.cvc5::internal::theory::arith::linear::RowVector" = type { %"class.cvc5::internal::theory::arith::linear::MatrixVector.37" }

; Function Attrs: mustprogress nounwind uwtable
define linkonce_odr hidden void @_ZN4cvc58internal6theory5arith6linear12MatrixVectorINS0_8RationalELb1EE8IteratorC2EjPKNS3_17MatrixEntryVectorIS5_EE(ptr noundef nonnull align 8 dereferenceable(16) %0, i32 noundef %1, ptr noundef %2) unnamed_addr #9 comdat align 2 {
  %4 = alloca ptr, align 8
  %5 = alloca i32, align 4
  %6 = alloca ptr, align 8
  store ptr %0, ptr %4, align 8, !tbaa !119
  store i32 %1, ptr %5, align 4, !tbaa !8
  store ptr %2, ptr %6, align 8, !tbaa !103
  %7 = load ptr, ptr %4, align 8
  %8 = getelementptr inbounds nuw %"class.cvc5::internal::theory::arith::linear::MatrixVector<cvc5::internal::Rational, true>::Iterator", ptr %7, i32 0, i32 0
  %9 = load i32, ptr %5, align 4, !tbaa !8
  store i32 %9, ptr %8, align 8, !tbaa !121
  %10 = getelementptr inbounds nuw %"class.cvc5::internal::theory::arith::linear::MatrixVector<cvc5::internal::Rational, true>::Iterator", ptr %7, i32 0, i32 1
  %11 = load ptr, ptr %6, align 8, !tbaa !103
  store ptr %11, ptr %10, align 8, !tbaa !123
  ret void
}

; Function Attrs: mustprogress nounwind uwtable
define linkonce_odr hidden noundef nonnull align 8 dereferenceable(16) ptr @_ZNKSt6vectorIN4cvc58internal6theory5arith6linear9RowVectorINS1_8RationalEEESaIS7_EEixEm(ptr noundef nonnull align 8 dereferenceable(24) %0, i64 noundef %1) #9 comdat align 2 {
  %3 = alloca ptr, align 8
  %4 = alloca i64, align 8
  store ptr %0, ptr %3, align 8, !tbaa !180
  store i64 %1, ptr %4, align 8, !tbaa !46
  %5 = load ptr, ptr %3, align 8
  %6 = getelementptr inbounds nuw %"struct.std::_Vector_base.1", ptr %5, i32 0, i32 0
  %7 = getelementptr inbounds nuw %"struct.std::_Vector_base<cvc5::internal::theory::arith::linear::RowVector<cvc5::internal::Rational>, std::allocator<cvc5::internal::theory::arith::linear::RowVector<cvc5::internal::Rational>>>::_Vector_impl_data", ptr %6, i32 0, i32 0
  %8 = load ptr, ptr %7, align 8, !tbaa !182
  %9 = load i64, ptr %4, align 8, !tbaa !46
  %10 = getelementptr inbounds nuw %"class.cvc5::internal::theory::arith::linear::RowVector", ptr %8, i64 %9
  ret ptr %10
}

; Function Attrs: mustprogress nounwind uwtable
define linkonce_odr hidden noundef nonnull align 4 dereferenceable(4) ptr @_ZNKSt6vectorIjSaIjEEixEm(ptr noundef nonnull align 8 dereferenceable(24) %0, i64 noundef %1) #9 comdat align 2 {
  %3 = alloca ptr, align 8
  %4 = alloca i64, align 8
  store ptr %0, ptr %3, align 8, !tbaa !128
  store i64 %1, ptr %4, align 8, !tbaa !46
  %5 = load ptr, ptr %3, align 8
  %6 = getelementptr inbounds nuw %"struct.std::_Vector_base.11", ptr %5, i32 0, i32 0
  %7 = getelementptr inbounds nuw %"struct.std::_Vector_base<unsigned int, std::allocator<unsigned int>>::_Vector_impl_data", ptr %6, i32 0, i32 0
  %8 = load ptr, ptr %7, align 8, !tbaa !153
  %9 = load i64, ptr %4, align 8, !tbaa !46
  %10 = getelementptr inbounds nuw i32, ptr %8, i64 %9
  ret ptr %10
}

; Function Attrs: mustprogress nounwind uwtable
define linkonce_odr hidden noundef nonnull align 8 dereferenceable(56) ptr @_ZNKSt6vectorIN4cvc58internal6theory5arith6linear11MatrixEntryINS1_8RationalEEESaIS7_EEixEm(ptr noundef nonnull align 8 dereferenceable(24) %0, i64 noundef %1) #9 comdat align 2 {
  %3 = alloca ptr, align 8
  %4 = alloca i64, align 8
  store ptr %0, ptr %3, align 8, !tbaa !296
  store i64 %1, ptr %4, align 8, !tbaa !46
  %5 = load ptr, ptr %3, align 8
  %6 = getelementptr inbounds nuw %"struct.std::_Vector_base.21", ptr %5, i32 0, i32 0
  %7 = getelementptr inbounds nuw %"struct.std::_Vector_base<cvc5::internal::theory::arith::linear::MatrixEntry<cvc5::internal::Rational>, std::allocator<cvc5::internal::theory::arith::linear::MatrixEntry<cvc5::internal::Rational>>>::_Vector_impl_data", ptr %6, i32 0, i32 0
  %8 = load ptr, ptr %7, align 8, !tbaa !298
  %9 = load i64, ptr %4, align 8, !tbaa !46
  %10 = getelementptr inbounds nuw %"class.cvc5::internal::theory::arith::linear::MatrixEntry", ptr %8, i64 %9
  ret ptr %10
}

; Function Attrs: mustprogress uwtable
define linkonce_odr hidden { i32, ptr } @_ZNK4cvc58internal6theory5arith6linear12MatrixVectorINS0_8RationalELb1EE5beginEv(ptr noundef nonnull align 8 dereferenceable(16) %0) #4 comdat align 2 {
  %2 = alloca %"class.cvc5::internal::theory::arith::linear::MatrixVector<cvc5::internal::Rational, true>::Iterator", align 8
  %3 = alloca ptr, align 8
  store ptr %0, ptr %3, align 8, !tbaa !175
  %4 = load ptr, ptr %3, align 8
  %5 = getelementptr inbounds nuw %"class.cvc5::internal::theory::arith::linear::MatrixVector.37", ptr %4, i32 0, i32 0
  %6 = load i32, ptr %5, align 8, !tbaa !177
  %7 = getelementptr inbounds nuw %"class.cvc5::internal::theory::arith::linear::MatrixVector.37", ptr %4, i32 0, i32 2
  %8 = load ptr, ptr %7, align 8, !tbaa !179
  call void @_ZN4cvc58internal6theory5arith6linear12MatrixVectorINS0_8RationalELb1EE8IteratorC2EjPKNS3_17MatrixEntryVectorIS5_EE(ptr noundef nonnull align 8 dereferenceable(16) %2, i32 noundef %6, ptr noundef %8)
  %9 = load { i32, ptr }, ptr %2, align 8
  ret { i32, ptr } %9
}

; Function Attrs: mustprogress nounwind uwtable
define linkonce_odr hidden noundef nonnull align 8 dereferenceable(16) ptr @_ZNK4cvc58internal6theory5arith6linear6MatrixINS0_8RationalEE6getRowEj(ptr noundef nonnull align 8 dereferenceable(352) %0, i32 noundef %1) #9 comdat align 2 {
  %3 = alloca ptr, align 8
  %4 = alloca i32, align 4
  store ptr %0, ptr %3, align 8, !tbaa !58
  store i32 %1, ptr %4, align 4, !tbaa !8
  %5 = load ptr, ptr %3, align 8
  %6 = getelementptr inbounds nuw %"class.cvc5::internal::theory::arith::linear::Matrix", ptr %5, i32 0, i32 0
  %7 = load i32, ptr %4, align 4, !tbaa !8
  %8 = zext i32 %7 to i64
  %9 = call noundef nonnull align 8 dereferenceable(16) ptr @_ZNKSt6vectorIN4cvc58internal6theory5arith6linear9RowVectorINS1_8RationalEEESaIS7_EEixEm(ptr noundef nonnull align 8 dereferenceable(24) %6, i64 noundef %8) #3
  ret ptr %9
}

; Function Attrs: mustprogress nounwind uwtable
define linkonce_odr hidden noundef nonnull align 4 dereferenceable(4) ptr @_ZNK4cvc58internal8DenseMapIjEixEj(ptr noundef nonnull align 8 dereferenceable(72) %0, i32 noundef %1) #9 comdat align 2 {
  %3 = alloca ptr, align 8
  %4 = alloca i32, align 4
  store ptr %0, ptr %3, align 8, !tbaa !124
  store i32 %1, ptr %4, align 4, !tbaa !8
  %5 = load ptr, ptr %3, align 8
  %6 = getelementptr inbounds nuw %"class.cvc5::internal::DenseMap.25", ptr %5, i32 0, i32 2
  %7 = load i32, ptr %4, align 4, !tbaa !8
  %8 = zext i32 %7 to i64
  %9 = call noundef nonnull align 4 dereferenceable(4) ptr @_ZNKSt6vectorIjSaIjEEixEm(ptr noundef nonnull align 8 dereferenceable(24) %6, i64 noundef %8) #3
  ret ptr %9
}

; Function Attrs: mustprogress nounwind uwtable
define linkonce_odr hidden noundef i32 @_ZNK4cvc58internal6theory5arith6linear11MatrixEntryINS0_8RationalEE17getNextRowEntryIDEv(ptr noundef nonnull align 8 dereferenceable(56) %0) #9 comdat align 2 {
  %2 = alloca ptr, align 8
  store ptr %0, ptr %2, align 8, !tbaa !18
  %3 = load ptr, ptr %2, align 8
  %4 = getelementptr inbounds nuw %"class.cvc5::internal::theory::arith::linear::MatrixEntry", ptr %3, i32 0, i32 2
  %5 = load i32, ptr %4, align 8, !tbaa !314
  ret i32 %5
}

; Function Attrs: mustprogress nounwind uwtable
define linkonce_odr hidden noundef nonnull align 8 dereferenceable(56) ptr @_ZNK4cvc58internal6theory5arith6linear17MatrixEntryVectorINS0_8RationalEEixEj(ptr noundef nonnull align 8 dereferenceable(108) %0, i32 noundef %1) #9 comdat align 2 {
  %3 = alloca ptr, align 8
  %4 = alloca i32, align 4
  store ptr %0, ptr %3, align 8, !tbaa !103
  store i32 %1, ptr %4, align 4, !tbaa !8
  %5 = load ptr, ptr %3, align 8
  %6 = getelementptr inbounds nuw %"class.cvc5::internal::theory::arith::linear::MatrixEntryVector", ptr %5, i32 0, i32 0
  %7 = load i32, ptr %4, align 4, !tbaa !8
  %8 = zext i32 %7 to i64
  %9 = call noundef nonnull align 8 dereferenceable(56) ptr @_ZNKSt6vectorIN4cvc58internal6theory5arith6linear11MatrixEntryINS1_8RationalEEESaIS7_EEixEm(ptr noundef nonnull align 8 dereferenceable(24) %6, i64 noundef %8) #3
  ret ptr %9
}

; Function Attrs: mustprogress uwtable
define linkonce_odr hidden { i32, ptr } @_ZNK4cvc58internal6theory5arith6linear7Tableau14ridRowIteratorEj(ptr noundef nonnull align 8 dereferenceable(496) %0, i32 noundef %1) #4 comdat align 2 {
  %3 = alloca %"class.cvc5::internal::theory::arith::linear::MatrixVector<cvc5::internal::Rational, true>::Iterator", align 8
  %4 = alloca ptr, align 8
  %5 = alloca i32, align 4
  store ptr %0, ptr %4, align 8, !tbaa !3
  store i32 %1, ptr %5, align 4, !tbaa !8
  %6 = load ptr, ptr %4, align 8
  %7 = load i32, ptr %5, align 4, !tbaa !8
  %8 = call noundef nonnull align 8 dereferenceable(16) ptr @_ZNK4cvc58internal6theory5arith6linear6MatrixINS0_8RationalEE6getRowEj(ptr noundef nonnull align 8 dereferenceable(352) %6, i32 noundef %7)
  %9 = call { i32, ptr } @_ZNK4cvc58internal6theory5arith6linear12MatrixVectorINS0_8RationalELb1EE5beginEv(ptr noundef nonnull align 8 dereferenceable(16) %8)
  %10 = getelementptr inbounds nuw { i32, ptr }, ptr %3, i32 0, i32 0
  %11 = extractvalue { i32, ptr } %9, 0
  store i32 %11, ptr %10, align 8
  %12 = getelementptr inbounds nuw { i32, ptr }, ptr %3, i32 0, i32 1
  %13 = extractvalue { i32, ptr } %9, 1
  store ptr %13, ptr %12, align 8
  %14 = load { i32, ptr }, ptr %3, align 8
  ret { i32, ptr } %14
}

; Function Attrs: mustprogress uwtable
define linkonce_odr hidden noundef i32 @_ZNK4cvc58internal6theory5arith6linear7Tableau15basicToRowIndexEj(ptr noundef nonnull align 8 dereferenceable(496) %0, i32 noundef %1) #4 comdat align 2 {
  %3 = alloca ptr, align 8
  %4 = alloca i32, align 4
  store ptr %0, ptr %3, align 8, !tbaa !3
  store i32 %1, ptr %4, align 4, !tbaa !8
  %5 = load ptr, ptr %3, align 8
  %6 = getelementptr inbounds nuw %"class.cvc5::internal::theory::arith::linear::Tableau", ptr %5, i32 0, i32 1
  %7 = load i32, ptr %4, align 4, !tbaa !8
  %8 = call noundef nonnull align 4 dereferenceable(4) ptr @_ZNK4cvc58internal8DenseMapIjEixEj(ptr noundef nonnull align 8 dereferenceable(72) %6, i32 noundef %7)
  %9 = load i32, ptr %8, align 4, !tbaa !8
  ret i32 %9
}

; Function Attrs: mustprogress nounwind uwtable
define linkonce_odr hidden noundef nonnull align 8 dereferenceable(16) ptr @_ZN4cvc58internal6theory5arith6linear12MatrixVectorINS0_8RationalELb1EE8IteratorppEv(ptr noundef nonnull align 8 dereferenceable(16) %0) #9 comdat align 2 {
  %2 = alloca ptr, align 8
  %3 = alloca ptr, align 8
  store ptr %0, ptr %2, align 8, !tbaa !119
  %4 = load ptr, ptr %2, align 8
  call void @llvm.lifetime.start.p0(i64 8, ptr %3) #3
  %5 = getelementptr inbounds nuw %"class.cvc5::internal::theory::arith::linear::MatrixVector<cvc5::internal::Rational, true>::Iterator", ptr %4, i32 0, i32 1
  %6 = load ptr, ptr %5, align 8, !tbaa !123
  %7 = getelementptr inbounds nuw %"class.cvc5::internal::theory::arith::linear::MatrixVector<cvc5::internal::Rational, true>::Iterator", ptr %4, i32 0, i32 0
  %8 = load i32, ptr %7, align 8, !tbaa !121
  %9 = call noundef nonnull align 8 dereferenceable(56) ptr @_ZNK4cvc58internal6theory5arith6linear17MatrixEntryVectorINS0_8RationalEEixEj(ptr noundef nonnull align 8 dereferenceable(108) %6, i32 noundef %8)
  store ptr %9, ptr %3, align 8, !tbaa !18
  %10 = load ptr, ptr %3, align 8, !tbaa !18
  %11 = call noundef i32 @_ZNK4cvc58internal6theory5arith6linear11MatrixEntryINS0_8RationalEE17getNextRowEntryIDEv(ptr noundef nonnull align 8 dereferenceable(56) %10)
  %12 = getelementptr inbounds nuw %"class.cvc5::internal::theory::arith::linear::MatrixVector<cvc5::internal::Rational, true>::Iterator", ptr %4, i32 0, i32 0
  store i32 %11, ptr %12, align 8, !tbaa !121
  call void @llvm.lifetime.end.p0(i64 8, ptr %3) #3
  ret ptr %4
}

; Function Attrs: mustprogress nounwind uwtable
define linkonce_odr hidden noundef nonnull align 8 dereferenceable(32) ptr @_ZNK4cvc58internal6theory5arith6linear11MatrixEntryINS0_8RationalEE14getCoefficientEv(ptr noundef nonnull align 8 dereferenceable(56) %0) #9 comdat align 2 {
  %2 = alloca ptr, align 8
  store ptr %0, ptr %2, align 8, !tbaa !18
  %3 = load ptr, ptr %2, align 8
  %4 = getelementptr inbounds nuw %"class.cvc5::internal::theory::arith::linear::MatrixEntry", ptr %3, i32 0, i32 6
  ret ptr %4
}

; Function Attrs: mustprogress nounwind uwtable
define linkonce_odr hidden noundef nonnull align 8 dereferenceable(56) ptr @_ZNK4cvc58internal6theory5arith6linear12MatrixVectorINS0_8RationalELb1EE8IteratordeEv(ptr noundef nonnull align 8 dereferenceable(16) %0) #9 comdat align 2 {
  %2 = alloca ptr, align 8
  store ptr %0, ptr %2, align 8, !tbaa !119
  %3 = load ptr, ptr %2, align 8
  %4 = getelementptr inbounds nuw %"class.cvc5::internal::theory::arith::linear::MatrixVector<cvc5::internal::Rational, true>::Iterator", ptr %3, i32 0, i32 1
  %5 = load ptr, ptr %4, align 8, !tbaa !123
  %6 = getelementptr inbounds nuw %"class.cvc5::internal::theory::arith::linear::MatrixVector<cvc5::internal::Rational, true>::Iterator", ptr %3, i32 0, i32 0
  %7 = load i32, ptr %6, align 8, !tbaa !121
  %8 = call noundef nonnull align 8 dereferenceable(56) ptr @_ZNK4cvc58internal6theory5arith6linear17MatrixEntryVectorINS0_8RationalEEixEj(ptr noundef nonnull align 8 dereferenceable(108) %5, i32 noundef %7)
  ret ptr %8
}

; Function Attrs: mustprogress nounwind uwtable
define linkonce_odr hidden noundef zeroext i1 @_ZNK4cvc58internal6theory5arith6linear12MatrixVectorINS0_8RationalELb1EE8Iterator5atEndEv(ptr noundef nonnull align 8 dereferenceable(16) %0) #9 comdat align 2 {
  %2 = alloca ptr, align 8
  store ptr %0, ptr %2, align 8, !tbaa !119
  %3 = load ptr, ptr %2, align 8
  %4 = getelementptr inbounds nuw %"class.cvc5::internal::theory::arith::linear::MatrixVector<cvc5::internal::Rational, true>::Iterator", ptr %3, i32 0, i32 0
  %5 = load i32, ptr %4, align 8, !tbaa !121
  %6 = icmp eq i32 %5, -1
  ret i1 %6
}

; Function Attrs: mustprogress uwtable
define linkonce_odr hidden { i32, ptr } @_ZNK4cvc58internal6theory5arith6linear7Tableau16basicRowIteratorEj(ptr noundef nonnull align 8 dereferenceable(496) %0, i32 noundef %1) #4 comdat align 2 {
  %3 = alloca %"class.cvc5::internal::theory::arith::linear::MatrixVector<cvc5::internal::Rational, true>::Iterator", align 8
  %4 = alloca ptr, align 8
  %5 = alloca i32, align 4
  store ptr %0, ptr %4, align 8, !tbaa !3
  store i32 %1, ptr %5, align 4, !tbaa !8
  %6 = load ptr, ptr %4, align 8
  %7 = load i32, ptr %5, align 4, !tbaa !8
  %8 = call noundef i32 @_ZNK4cvc58internal6theory5arith6linear7Tableau15basicToRowIndexEj(ptr noundef nonnull align 8 dereferenceable(496) %6, i32 noundef %7)
  %9 = call { i32, ptr } @_ZNK4cvc58internal6theory5arith6linear7Tableau14ridRowIteratorEj(ptr noundef nonnull align 8 dereferenceable(496) %6, i32 noundef %8)
  %10 = getelementptr inbounds nuw { i32, ptr }, ptr %3, i32 0, i32 0
  %11 = extractvalue { i32, ptr } %9, 0
  store i32 %11, ptr %10, align 8
  %12 = getelementptr inbounds nuw { i32, ptr }, ptr %3, i32 0, i32 1
  %13 = extractvalue { i32, ptr } %9, 1
  store ptr %13, ptr %12, align 8
  %14 = load { i32, ptr }, ptr %3, align 8
  ret { i32, ptr } %14
}

; Function Attrs: mustprogress uwtable
define hidden noundef i32 @_ZNK4cvc58internal6theory5arith6linear7Tableau13rowComplexityEj(ptr noundef nonnull align 8 dereferenceable(496) %0, i32 noundef %1) #4 align 2 {
  %3 = alloca ptr, align 8
  %4 = alloca i32, align 4
  %5 = alloca i32, align 4
  %6 = alloca %"class.cvc5::internal::theory::arith::linear::MatrixVector<cvc5::internal::Rational, true>::Iterator", align 8
  %7 = alloca ptr, align 8
  store ptr %0, ptr %3, align 8, !tbaa !3
  store i32 %1, ptr %4, align 4, !tbaa !8
  %8 = load ptr, ptr %3, align 8
  call void @llvm.lifetime.start.p0(i64 4, ptr %5) #3
  store i32 0, ptr %5, align 4, !tbaa !8
  call void @llvm.lifetime.start.p0(i64 16, ptr %6) #3
  %9 = load i32, ptr %4, align 4, !tbaa !8
  %10 = call { i32, ptr } @_ZNK4cvc58internal6theory5arith6linear7Tableau16basicRowIteratorEj(ptr noundef nonnull align 8 dereferenceable(496) %8, i32 noundef %9)
  %11 = getelementptr inbounds nuw { i32, ptr }, ptr %6, i32 0, i32 0
  %12 = extractvalue { i32, ptr } %10, 0
  store i32 %12, ptr %11, align 8
  %13 = getelementptr inbounds nuw { i32, ptr }, ptr %6, i32 0, i32 1
  %14 = extractvalue { i32, ptr } %10, 1
  store ptr %14, ptr %13, align 8
  br label %15

15:                                               ; preds = %26, %2
  %16 = call noundef zeroext i1 @_ZNK4cvc58internal6theory5arith6linear12MatrixVectorINS0_8RationalELb1EE8Iterator5atEndEv(ptr noundef nonnull align 8 dereferenceable(16) %6)
  %17 = xor i1 %16, true
  br i1 %17, label %19, label %18

18:                                               ; preds = %15
  call void @llvm.lifetime.end.p0(i64 16, ptr %6) #3
  br label %28

19:                                               ; preds = %15
  call void @llvm.lifetime.start.p0(i64 8, ptr %7) #3
  %20 = call noundef nonnull align 8 dereferenceable(56) ptr @_ZNK4cvc58internal6theory5arith6linear12MatrixVectorINS0_8RationalELb1EE8IteratordeEv(ptr noundef nonnull align 8 dereferenceable(16) %6)
  store ptr %20, ptr %7, align 8, !tbaa !18
  %21 = load ptr, ptr %7, align 8, !tbaa !18
  %22 = call noundef nonnull align 8 dereferenceable(32) ptr @_ZNK4cvc58internal6theory5arith6linear11MatrixEntryINS0_8RationalEE14getCoefficientEv(ptr noundef nonnull align 8 dereferenceable(56) %21)
  %23 = call noundef i32 @_ZNK4cvc58internal8Rational10complexityEv(ptr noundef nonnull align 8 dereferenceable(32) %22)
  %24 = load i32, ptr %5, align 4, !tbaa !8
  %25 = add i32 %24, %23
  store i32 %25, ptr %5, align 4, !tbaa !8
  call void @llvm.lifetime.end.p0(i64 8, ptr %7) #3
  br label %26

26:                                               ; preds = %19
  %27 = call noundef nonnull align 8 dereferenceable(16) ptr @_ZN4cvc58internal6theory5arith6linear12MatrixVectorINS0_8RationalELb1EE8IteratorppEv(ptr noundef nonnull align 8 dereferenceable(16) %6)
  br label %15, !llvm.loop !147

28:                                               ; preds = %18
  %29 = load i32, ptr %5, align 4, !tbaa !8
  call void @llvm.lifetime.end.p0(i64 4, ptr %5) #3
  ret i32 %29
}