; Function Attrs: mustprogress uwtable
define hidden noundef i32 @_ZNK4cvc58internal6theory5arith6linear7Tableau13rowComplexityEj(ptr noundef nonnull readonly align 8 captures(none) dereferenceable(496) %0, i32 noundef %1) local_unnamed_addr #3 align 2 {
  %3 = getelementptr inbounds nuw i8, ptr %0, i64 400
  %4 = zext i32 %1 to i64
  %5 = load ptr, ptr %3, align 8, !tbaa !3
  %6 = getelementptr inbounds nuw i32, ptr %5, i64 %4
  %7 = load i32, ptr %6, align 4, !tbaa !9
  %8 = zext i32 %7 to i64
  %9 = load ptr, ptr %0, align 8, !tbaa !11
  %10 = getelementptr inbounds nuw %"class.cvc5::internal::theory::arith::linear::RowVector", ptr %9, i64 %8
  %11 = getelementptr inbounds nuw i8, ptr %10, i64 8
  %12 = load ptr, ptr %11, align 8, !tbaa !14
  %.sroa.0.08 = load i32, ptr %10, align 8, !tbaa !9
  %13 = icmp eq i32 %.sroa.0.08, -1
  br i1 %13, label %._crit_edge, label %.lr.ph.preheader

.lr.ph.preheader:                                 ; preds = %2
  %.pre = load ptr, ptr %12, align 8, !tbaa !17
  br label %.lr.ph

._crit_edge:                                      ; preds = %.lr.ph, %2
  %.0.lcssa = phi i32 [ 0, %2 ], [ %18, %.lr.ph ]
  ret i32 %.0.lcssa

.lr.ph:                                           ; preds = %.lr.ph.preheader, %.lr.ph
  %14 = phi ptr [ %19, %.lr.ph ], [ %.pre, %.lr.ph.preheader ]
  %.sroa.0.010 = phi i32 [ %.sroa.0.0, %.lr.ph ], [ %.sroa.0.08, %.lr.ph.preheader ]
  %.09 = phi i32 [ %18, %.lr.ph ], [ 0, %.lr.ph.preheader ]
  %15 = zext i32 %.sroa.0.010 to i64
  %16 = getelementptr inbounds nuw %"class.cvc5::internal::theory::arith::linear::MatrixEntry", ptr %14, i64 %15, i32 6
  %17 = tail call noundef i32 @_ZNK4cvc58internal8Rational10complexityEv(ptr noundef nonnull align 8 dereferenceable(32) %16)
  %18 = add i32 %17, %.09
  %19 = load ptr, ptr %12, align 8, !tbaa !17
  %20 = getelementptr inbounds nuw %"class.cvc5::internal::theory::arith::linear::MatrixEntry", ptr %19, i64 %15, i32 2
  %.sroa.0.0 = load i32, ptr %20, align 8, !tbaa !9
  %21 = icmp eq i32 %.sroa.0.0, -1
  br i1 %21, label %._crit_edge, label %.lr.ph, !llvm.loop !108
}